target datalayout = "e-m:e-p270:32:32-p271:32:32-p272:64:64-i64:64-i128:128-f80:128-n8:16:32:64-S128"
target triple = "x86_64-pc-linux-gnu"

%"struct.FieldInformation::Position" = type { i32, i32 }
%class.FieldInformation = type { %class.QObject, %class.IDataPrintable, ptr, ptr }
%class.QObject = type { ptr, %class.QScopedPointer }
%class.QScopedPointer = type { ptr }
%class.IDataPrintable = type { ptr }
%struct.field_info = type { ptr, i32, i32, i32, i32, i32, i32, ptr, ptr, ptr, i32, i32 }

@__const._ZNK16FieldInformation8positionEv.pos = private unnamed_addr constant %"struct.FieldInformation::Position" { i32 -1, i32 -1 }, align 4

; Function Attrs: mustprogress uwtable
define i64 @_ZNK16FieldInformation8positionEv(ptr noundef nonnull align 8 dereferenceable(40) %0) #0 align 2 {
  %2 = alloca %"struct.FieldInformation::Position", align 4
  %3 = alloca ptr, align 8
  %4 = alloca i32, align 4
  store ptr %0, ptr %3, align 8
  %5 = load ptr, ptr %3, align 8
  call void @llvm.memcpy.p0.p0.i64(ptr align 4 %2, ptr align 4 @__const._ZNK16FieldInformation8positionEv.pos, i64 8, i1 false)
  %6 = getelementptr inbounds %class.FieldInformation, ptr %5, i32 0, i32 2
  %7 = load ptr, ptr %6, align 8
  %8 = icmp ne ptr %7, null
  br i1 %8, label %9, label %75

9:                                                ; preds = %1
  %10 = getelementptr inbounds %class.FieldInformation, ptr %5, i32 0, i32 2
  %11 = load ptr, ptr %10, align 8
  %12 = getelementptr inbounds %struct.field_info, ptr %11, i32 0, i32 8
  %13 = load ptr, ptr %12, align 8
  %14 = icmp ne ptr %13, null
  br i1 %14, label %15, label %75

15:                                               ; preds = %9
  %16 = getelementptr inbounds %class.FieldInformation, ptr %5, i32 0, i32 2
  %17 = load ptr, ptr %16, align 8
  %18 = getelementptr inbounds %struct.field_info, ptr %17, i32 0, i32 8
  %19 = load ptr, ptr %18, align 8
  %20 = call i32 @tvb_captured_length(ptr noundef %19)
  store i32 %20, ptr %4, align 4
  %21 = getelementptr inbounds %class.FieldInformation, ptr %5, i32 0, i32 2
  %22 = load ptr, ptr %21, align 8
  %23 = getelementptr inbounds %struct.field_info, ptr %22, i32 0, i32 1
  %24 = load i32, ptr %23, align 8
  %25 = getelementptr inbounds %"struct.FieldInformation::Position", ptr %2, i32 0, i32 0
  store i32 %24, ptr %25, align 4
  %26 = getelementptr inbounds %class.FieldInformation, ptr %5, i32 0, i32 2
  %27 = load ptr, ptr %26, align 8
  %28 = getelementptr inbounds %struct.field_info, ptr %27, i32 0, i32 2
  %29 = load i32, ptr %28, align 4
  %30 = getelementptr inbounds %"struct.FieldInformation::Position", ptr %2, i32 0, i32 1
  store i32 %29, ptr %30, align 4
  %31 = getelementptr inbounds %"struct.FieldInformation::Position", ptr %2, i32 0, i32 0
  %32 = load i32, ptr %31, align 4
  %33 = icmp slt i32 %32, 0
  br i1 %33, label %43, label %34

34:                                               ; preds = %15
  %35 = getelementptr inbounds %"struct.FieldInformation::Position", ptr %2, i32 0, i32 1
  %36 = load i32, ptr %35, align 4
  %37 = icmp slt i32 %36, 0
  br i1 %37, label %43, label %38

38:                                               ; preds = %34
  %39 = getelementptr inbounds %"struct.FieldInformation::Position", ptr %2, i32 0, i32 0
  %40 = load i32, ptr %39, align 4
  %41 = load i32, ptr %4, align 4
  %42 = icmp sge i32 %40, %41
  br i1 %42, label %43, label %74

43:                                               ; preds = %38, %34, %15
  %44 = getelementptr inbounds %class.FieldInformation, ptr %5, i32 0, i32 2
  %45 = load ptr, ptr %44, align 8
  %46 = getelementptr inbounds %struct.field_info, ptr %45, i32 0, i32 3
  %47 = load i32, ptr %46, align 8
  %48 = icmp sge i32 %47, 0
  br i1 %48, label %49, label %73

49:                                               ; preds = %43
  %50 = getelementptr inbounds %class.FieldInformation, ptr %5, i32 0, i32 2
  %51 = load ptr, ptr %50, align 8
  %52 = getelementptr inbounds %struct.field_info, ptr %51, i32 0, i32 4
  %53 = load i32, ptr %52, align 4
  %54 = icmp sgt i32 %53, 0
  br i1 %54, label %55, label %73

55:                                               ; preds = %49
  %56 = getelementptr inbounds %class.FieldInformation, ptr %5, i32 0, i32 2
  %57 = load ptr, ptr %56, align 8
  %58 = getelementptr inbounds %struct.field_info, ptr %57, i32 0, i32 3
  %59 = load i32, ptr %58, align 8
  %60 = load i32, ptr %4, align 4
  %61 = icmp slt i32 %59, %60
  br i1 %61, label %62, label %73

62:                                               ; preds = %55
  %63 = getelementptr inbounds %class.FieldInformation, ptr %5, i32 0, i32 2
  %64 = load ptr, ptr %63, align 8
  %65 = getelementptr inbounds %struct.field_info, ptr %64, i32 0, i32 3
  %66 = load i32, ptr %65, align 8
  %67 = getelementptr inbounds %"struct.FieldInformation::Position", ptr %2, i32 0, i32 0
  store i32 %66, ptr %67, align 4
  %68 = getelementptr inbounds %class.FieldInformation, ptr %5, i32 0, i32 2
  %69 = load ptr, ptr %68, align 8
  %70 = getelementptr inbounds %struct.field_info, ptr %69, i32 0, i32 4
  %71 = load i32, ptr %70, align 4
  %72 = getelementptr inbounds %"struct.FieldInformation::Position", ptr %2, i32 0, i32 1
  store i32 %71, ptr %72, align 4
  br label %73

73:                                               ; preds = %62, %55, %49, %43
  br label %74

74:                                               ; preds = %73, %38
  br label %75

75:                                               ; preds = %74, %9, %1
  %76 = load i64, ptr %2, align 4
  ret i64 %76
}