; Function Attrs: mustprogress uwtable
define i64 @_ZNK16FieldInformation8positionEv(ptr nocapture noundef nonnull readonly align 8 dereferenceable(40) %0) local_unnamed_addr #0 align 2 {
  %2 = getelementptr inbounds i8, ptr %0, i64 24
  %3 = load ptr, ptr %2, align 8
  %.not = icmp eq ptr %3, null
  br i1 %.not, label %25, label %4

4:                                                ; preds = %1
  %5 = getelementptr inbounds i8, ptr %3, i64 40
  %6 = load ptr, ptr %5, align 8
  %.not11 = icmp eq ptr %6, null
  br i1 %.not11, label %25, label %7

7:                                                ; preds = %4
  %8 = tail call i32 @tvb_captured_length(ptr noundef nonnull %6)
  %9 = load ptr, ptr %2, align 8
  %10 = getelementptr inbounds i8, ptr %9, i64 8
  %11 = load i32, ptr %10, align 8
  %12 = getelementptr inbounds i8, ptr %9, i64 12
  %13 = load i32, ptr %12, align 4
  %14 = icmp sgt i32 %11, -1
  %15 = icmp sgt i32 %13, -1
  %or.cond.not18 = select i1 %14, i1 %15, i1 false
  %.not12 = icmp slt i32 %11, %8
  %or.cond13 = select i1 %or.cond.not18, i1 %.not12, i1 false
  br i1 %or.cond13, label %25, label %16

16:                                               ; preds = %7
  %17 = getelementptr inbounds i8, ptr %9, i64 16
  %18 = load i32, ptr %17, align 8
  %19 = icmp sgt i32 %18, -1
  br i1 %19, label %20, label %25

20:                                               ; preds = %16
  %21 = getelementptr inbounds i8, ptr %9, i64 20
  %22 = load i32, ptr %21, align 4
  %23 = icmp sgt i32 %22, 0
  %24 = icmp slt i32 %18, %8
  %or.cond14 = select i1 %23, i1 %24, i1 false
  %spec.select = select i1 %or.cond14, i32 %18, i32 %11
  %spec.select15 = select i1 %or.cond14, i32 %22, i32 %13
  br label %25

25:                                               ; preds = %20, %7, %16, %4, %1
  %.sroa.0.0 = phi i32 [ %11, %16 ], [ -1, %4 ], [ -1, %1 ], [ %11, %7 ], [ %spec.select, %20 ]
  %.sroa.6.0 = phi i32 [ %13, %16 ], [ -1, %4 ], [ -1, %1 ], [ %13, %7 ], [ %spec.select15, %20 ]
  %.sroa.6.0.insert.ext = zext i32 %.sroa.6.0 to i64
  %.sroa.6.0.insert.shift = shl nuw i64 %.sroa.6.0.insert.ext, 32
  %.sroa.0.0.insert.ext = zext i32 %.sroa.0.0 to i64
  %.sroa.0.0.insert.insert = or disjoint i64 %.sroa.6.0.insert.shift, %.sroa.0.0.insert.ext
  ret i64 %.sroa.0.0.insert.insert
}